target datalayout = "e-m:e-p270:32:32-p271:32:32-p272:64:64-i64:64-i128:128-f80:128-n8:16:32:64-S128"
target triple = "x86_64-pc-linux-gnu"

@.str.7 = private unnamed_addr constant [16 x i8] c"client_encoding\00", align 1
@.str.74 = private unnamed_addr constant [3 x i8] c"%d\00", align 1
@.str.109 = private unnamed_addr constant [7 x i8] c"PGPORT\00", align 1
@.str.110 = private unnamed_addr constant [5 x i8] c"port\00", align 1
@.str.111 = private unnamed_addr constant [12 x i8] c"PGDATESTYLE\00", align 1
@.str.112 = private unnamed_addr constant [10 x i8] c"datestyle\00", align 1
@.str.113 = private unnamed_addr constant [17 x i8] c"PGCLIENTENCODING\00", align 1
@.str.114 = private unnamed_addr constant [16 x i8] c"max_stack_depth\00", align 1

; Function Attrs: nounwind uwtable
define dso_local i32 @set_config_option(ptr noundef %0, ptr noundef %1, i32 noundef %2, i32 noundef %3, i32 noundef %4, i1 noundef zeroext %5, i32 noundef %6, i1 noundef zeroext %7) #0 {
  %9 = alloca ptr, align 8
  %10 = alloca ptr, align 8
  %11 = alloca i32, align 4
  %12 = alloca i32, align 4
  %13 = alloca i32, align 4
  %14 = alloca i8, align 1
  %15 = alloca i32, align 4
  %16 = alloca i8, align 1
  %17 = alloca i32, align 4
  store ptr %0, ptr %9, align 8
  store ptr %1, ptr %10, align 8
  store i32 %2, ptr %11, align 4
  store i32 %3, ptr %12, align 4
  store i32 %4, ptr %13, align 4
  %18 = zext i1 %5 to i8
  store i8 %18, ptr %14, align 1
  store i32 %6, ptr %15, align 4
  %19 = zext i1 %7 to i8
  store i8 %19, ptr %16, align 1
  call void @llvm.lifetime.start.p0(i64 4, ptr %17) #16
  %20 = load i32, ptr %12, align 4
  %21 = icmp uge i32 %20, 11
  br i1 %21, label %25, label %22

22:                                               ; preds = %8
  %23 = load i32, ptr %12, align 4
  %24 = icmp eq i32 %23, 9
  br i1 %24, label %25, label %27

25:                                               ; preds = %22, %8
  %26 = call i32 @GetUserId()
  store i32 %26, ptr %17, align 4
  br label %28

27:                                               ; preds = %22
  store i32 10, ptr %17, align 4
  br label %28

28:                                               ; preds = %27, %25
  %29 = load ptr, ptr %9, align 8
  %30 = load ptr, ptr %10, align 8
  %31 = load i32, ptr %11, align 4
  %32 = load i32, ptr %12, align 4
  %33 = load i32, ptr %17, align 4
  %34 = load i32, ptr %13, align 4
  %35 = load i8, ptr %14, align 1, !range !4, !noundef !5
  %36 = trunc i8 %35 to i1
  %37 = load i32, ptr %15, align 4
  %38 = load i8, ptr %16, align 1, !range !4, !noundef !5
  %39 = trunc i8 %38 to i1
  %40 = call i32 @set_config_with_handle(ptr noundef %29, ptr noundef null, ptr noundef %30, i32 noundef %31, i32 noundef %32, i32 noundef %33, i32 noundef %34, i1 noundef zeroext %36, i32 noundef %37, i1 noundef zeroext %39)
  call void @llvm.lifetime.end.p0(i64 4, ptr %17) #16
  ret i32 %40
}

; Function Attrs: nounwind uwtable
define dso_local void @SetConfigOption(ptr noundef %0, ptr noundef %1, i32 noundef %2, i32 noundef %3) #0 {
  %5 = alloca ptr, align 8
  %6 = alloca ptr, align 8
  %7 = alloca i32, align 4
  %8 = alloca i32, align 4
  store ptr %0, ptr %5, align 8
  store ptr %1, ptr %6, align 8
  store i32 %2, ptr %7, align 4
  store i32 %3, ptr %8, align 4
  %9 = load ptr, ptr %5, align 8
  %10 = load ptr, ptr %6, align 8
  %11 = load i32, ptr %7, align 4
  %12 = load i32, ptr %8, align 4
  %13 = call i32 @set_config_option(ptr noundef %9, ptr noundef %10, i32 noundef %11, i32 noundef %12, i32 noundef 0, i1 noundef zeroext true, i32 noundef 0, i1 noundef zeroext false)
  ret void
}

; Function Attrs: nounwind uwtable
define internal void @InitializeGUCOptionsFromEnvironment() #0 {
  %1 = alloca ptr, align 8
  %2 = alloca i64, align 8
  %3 = alloca i64, align 8
  %4 = alloca i32, align 4
  %5 = alloca [16 x i8], align 16
  call void @llvm.lifetime.start.p0(i64 8, ptr %1) #16
  call void @llvm.lifetime.start.p0(i64 8, ptr %2) #16
  %6 = call ptr @getenv(ptr noundef @.str.109) #16
  store ptr %6, ptr %1, align 8
  %7 = load ptr, ptr %1, align 8
  %8 = icmp ne ptr %7, null
  br i1 %8, label %9, label %11

9:                                                ; preds = %0
  %10 = load ptr, ptr %1, align 8
  call void @SetConfigOption(ptr noundef @.str.110, ptr noundef %10, i32 noundef 1, i32 noundef 2)
  br label %11

11:                                               ; preds = %9, %0
  %12 = call ptr @getenv(ptr noundef @.str.111) #16
  store ptr %12, ptr %1, align 8
  %13 = load ptr, ptr %1, align 8
  %14 = icmp ne ptr %13, null
  br i1 %14, label %15, label %17

15:                                               ; preds = %11
  %16 = load ptr, ptr %1, align 8
  call void @SetConfigOption(ptr noundef @.str.112, ptr noundef %16, i32 noundef 1, i32 noundef 2)
  br label %17

17:                                               ; preds = %15, %11
  %18 = call ptr @getenv(ptr noundef @.str.113) #16
  store ptr %18, ptr %1, align 8
  %19 = load ptr, ptr %1, align 8
  %20 = icmp ne ptr %19, null
  br i1 %20, label %21, label %23

21:                                               ; preds = %17
  %22 = load ptr, ptr %1, align 8
  call void @SetConfigOption(ptr noundef @.str.7, ptr noundef %22, i32 noundef 1, i32 noundef 2)
  br label %23

23:                                               ; preds = %21, %17
  %24 = call i64 @get_stack_depth_rlimit()
  store i64 %24, ptr %2, align 8
  %25 = load i64, ptr %2, align 8
  %26 = icmp sgt i64 %25, 0
  br i1 %26, label %27, label %46

27:                                               ; preds = %23
  call void @llvm.lifetime.start.p0(i64 8, ptr %3) #16
  %28 = load i64, ptr %2, align 8
  %29 = sub i64 %28, 524288
  %30 = sdiv i64 %29, 1024
  store i64 %30, ptr %3, align 8
  %31 = load i64, ptr %3, align 8
  %32 = icmp sgt i64 %31, 100
  br i1 %32, label %33, label %45

33:                                               ; preds = %27
  call void @llvm.lifetime.start.p0(i64 4, ptr %4) #16
  call void @llvm.lifetime.start.p0(i64 16, ptr %5) #16
  %34 = load i64, ptr %3, align 8
  %35 = icmp slt i64 %34, 2048
  br i1 %35, label %36, label %37

36:                                               ; preds = %33
  store i32 2, ptr %4, align 4
  br label %38

37:                                               ; preds = %33
  store i64 2048, ptr %3, align 8
  store i32 1, ptr %4, align 4
  br label %38

38:                                               ; preds = %37, %36
  %39 = getelementptr inbounds [16 x i8], ptr %5, i64 0, i64 0
  %40 = load i64, ptr %3, align 8
  %41 = trunc i64 %40 to i32
  %42 = call i32 (ptr, i64, ptr, ...) @pg_snprintf(ptr noundef %39, i64 noundef 16, ptr noundef @.str.74, i32 noundef %41)
  %43 = getelementptr inbounds [16 x i8], ptr %5, i64 0, i64 0
  %44 = load i32, ptr %4, align 4
  call void @SetConfigOption(ptr noundef @.str.114, ptr noundef %43, i32 noundef 1, i32 noundef %44)
  call void @llvm.lifetime.end.p0(i64 16, ptr %5) #16
  call void @llvm.lifetime.end.p0(i64 4, ptr %4) #16
  br label %45

45:                                               ; preds = %38, %27
  call void @llvm.lifetime.end.p0(i64 8, ptr %3) #16
  br label %46

46:                                               ; preds = %45, %23
  call void @llvm.lifetime.end.p0(i64 8, ptr %2) #16
  call void @llvm.lifetime.end.p0(i64 8, ptr %1) #16
  ret void
}