; Function Attrs: nounwind uwtable
define internal fastcc void @InitializeGUCOptionsFromEnvironment() unnamed_addr #0 {
  %1 = alloca [16 x i8], align 16
  %2 = tail call ptr @getenv(ptr noundef nonnull @.str.109) #29
  %.not = icmp eq ptr %2, null
  br i1 %.not, label %5, label %3

3:                                                ; preds = %0
  %4 = tail call range(i32 -1, 2) i32 @set_config_with_handle(ptr noundef nonnull @.str.110, ptr noundef null, ptr noundef nonnull %2, i32 noundef 1, i32 noundef 2, i32 noundef 10, i32 noundef 0, i1 noundef zeroext true, i32 noundef 0, i1 noundef zeroext false)
  br label %5

5:                                                ; preds = %3, %0
  %6 = tail call ptr @getenv(ptr noundef nonnull @.str.111) #29
  %.not17 = icmp eq ptr %6, null
  br i1 %.not17, label %9, label %7

7:                                                ; preds = %5
  %8 = tail call range(i32 -1, 2) i32 @set_config_with_handle(ptr noundef nonnull @.str.112, ptr noundef null, ptr noundef nonnull %6, i32 noundef 1, i32 noundef 2, i32 noundef 10, i32 noundef 0, i1 noundef zeroext true, i32 noundef 0, i1 noundef zeroext false)
  br label %9

9:                                                ; preds = %7, %5
  %10 = tail call ptr @getenv(ptr noundef nonnull @.str.113) #29
  %.not18 = icmp eq ptr %10, null
  br i1 %.not18, label %13, label %11

11:                                               ; preds = %9
  %12 = tail call range(i32 -1, 2) i32 @set_config_with_handle(ptr noundef nonnull @.str.7, ptr noundef null, ptr noundef nonnull %10, i32 noundef 1, i32 noundef 2, i32 noundef 10, i32 noundef 0, i1 noundef zeroext true, i32 noundef 0, i1 noundef zeroext false)
  br label %13

13:                                               ; preds = %11, %9
  %14 = tail call i64 @get_stack_depth_rlimit() #29
  %or.cond = icmp sgt i64 %14, 627711
  br i1 %or.cond, label %15, label %22

15:                                               ; preds = %13
  %16 = add nuw i64 %14, 4398045986816
  %17 = lshr i64 %16, 10
  call void @llvm.lifetime.start.p0(i64 16, ptr nonnull %1) #29
  %18 = icmp samesign ult i64 %14, 2621440
  %19 = trunc i64 %17 to i32
  %.011 = select i1 %18, i32 %19, i32 2048
  %.0 = select i1 %18, i32 2, i32 1
  %20 = call i32 (ptr, i64, ptr, ...) @pg_snprintf(ptr noundef nonnull %1, i64 noundef 16, ptr noundef nonnull @.str.74, i32 noundef %.011) #29
  %21 = call range(i32 -1, 2) i32 @set_config_with_handle(ptr noundef nonnull @.str.114, ptr noundef null, ptr noundef nonnull %1, i32 noundef 1, i32 noundef %.0, i32 noundef 10, i32 noundef 0, i1 noundef zeroext true, i32 noundef 0, i1 noundef zeroext false)
  call void @llvm.lifetime.end.p0(i64 16, ptr nonnull %1) #29
  br label %22

22:                                               ; preds = %15, %13
  ret void
}